; Function Attrs: mustprogress uwtable
define hidden noundef ptr @_ZN7datalog11instruction8mk_unionEjjj(i32 noundef %0, i32 noundef %1, i32 noundef %2) local_unnamed_addr #3 align 2 personality ptr @__gxx_personality_v0 {
  %4 = tail call noalias noundef ptr @_ZN6memory8allocateEm(i64 noundef 88)
  %5 = getelementptr inbounds nuw i8, ptr %4, i64 8
  %6 = getelementptr inbounds nuw i8, ptr %4, i64 24
  tail call void @llvm.memset.p0.i64(ptr noundef nonnull align 8 dereferenceable(33) %5, i8 0, i64 16, i1 false)
  tail call void @_ZN7datalog5costsC1Ev(ptr noundef nonnull align 4 dereferenceable(8) %6)
  %7 = getelementptr inbounds nuw i8, ptr %4, i64 32
  tail call void @_ZN7datalog5costsC1Ev(ptr noundef nonnull align 4 dereferenceable(8) %7)
  %8 = getelementptr inbounds nuw i8, ptr %4, i64 40
  store i8 0, ptr %8, align 8, !tbaa !294
  store ptr getelementptr inbounds nuw inrange(-16, 56) (i8, ptr @_ZTVN7datalog11instructionE, i64 16), ptr %4, align 8, !tbaa !43
  %9 = invoke noalias noundef ptr @_ZN6memory8allocateEm(i64 noundef 192)
          to label %.lr.ph.i.i.i.i.i.i.i.i.i.i.i unwind label %13

.lr.ph.i.i.i.i.i.i.i.i.i.i.i:                     ; preds = %3, %.lr.ph.i.i.i.i.i.i.i.i.i.i.i
  %.08.i.i.i.i.i.i.i.i.i.i.i = phi ptr [ %12, %.lr.ph.i.i.i.i.i.i.i.i.i.i.i ], [ %9, %3 ]
  %.057.i.i.i.i.i.i.i.i.i.i.i = phi i32 [ %11, %.lr.ph.i.i.i.i.i.i.i.i.i.i.i ], [ 8, %3 ]
  store i32 0, ptr %.08.i.i.i.i.i.i.i.i.i.i.i, align 8, !tbaa !296
  %10 = getelementptr inbounds nuw i8, ptr %.08.i.i.i.i.i.i.i.i.i.i.i, i64 4
  store i32 0, ptr %10, align 4, !tbaa !300
  %11 = add nsw i32 %.057.i.i.i.i.i.i.i.i.i.i.i, -1
  %12 = getelementptr inbounds nuw i8, ptr %.08.i.i.i.i.i.i.i.i.i.i.i, i64 24
  %.not.i.i.i.i.i.i.i.i.i.i.i = icmp eq i32 %11, 0
  br i1 %.not.i.i.i.i.i.i.i.i.i.i.i, label %_ZN7datalog11instr_unionC2Ejjjb.exit, label %.lr.ph.i.i.i.i.i.i.i.i.i.i.i, !llvm.loop !301

13:                                               ; preds = %3
  %14 = landingpad { ptr, i32 }
          cleanup
  tail call void @_ZN7datalog16accounted_objectD2Ev(ptr noundef nonnull align 8 dereferenceable(33) %5) #25
  resume { ptr, i32 } %14

_ZN7datalog11instr_unionC2Ejjjb.exit:             ; preds = %.lr.ph.i.i.i.i.i.i.i.i.i.i.i
  %15 = getelementptr inbounds nuw i8, ptr %4, i64 48
  store ptr %9, ptr %15, align 8, !tbaa !302
  %16 = getelementptr inbounds nuw i8, ptr %4, i64 56
  store i32 8, ptr %16, align 8, !tbaa !305
  %17 = getelementptr inbounds nuw i8, ptr %4, i64 60
  store i32 0, ptr %17, align 4, !tbaa !306
  %18 = getelementptr inbounds nuw i8, ptr %4, i64 64
  store i32 0, ptr %18, align 8, !tbaa !307
  store ptr getelementptr inbounds nuw inrange(-16, 56) (i8, ptr @_ZTVN7datalog11instr_unionE, i64 16), ptr %4, align 8, !tbaa !43
  %19 = getelementptr inbounds nuw i8, ptr %4, i64 72
  store i32 %0, ptr %19, align 8, !tbaa !346
  %20 = getelementptr inbounds nuw i8, ptr %4, i64 76
  store i32 %1, ptr %20, align 4, !tbaa !348
  %21 = getelementptr inbounds nuw i8, ptr %4, i64 80
  store i32 %2, ptr %21, align 8, !tbaa !349
  %22 = getelementptr inbounds nuw i8, ptr %4, i64 84
  store i8 0, ptr %22, align 4, !tbaa !350
  ret ptr %4
}